(lp0
S'poi'
p1
aS'from_poi_to_this_person'
p2
aS'shared_receipt_with_poi'
p3
aS'salary'
p4
aS'total_payments'
p5
aS'loan_advances'
p6
aS'bonus'
p7
aS'deferred_income'
p8
aS'total_stock_value'
p9
aS'expenses'
p10
aS'exercised_stock_options'
p11
aS'other'
p12
aS'long_term_incentive'
p13
aS'restricted_stock'
p14
aS'poi_correspondence'
p15
a.